ImageScaling;[unknown] 2
ImageScaling;[unknown];[unknown];[unknown];__run_exit_handlers;_ZN12_GLOBAL__N_115DistYCbCrBufferD2Ev;_ZNSt6vectorIfSaIfEED2Ev;_ZNSt12_Vector_baseIfSaIfEED1Ev;_ZNSt12_Vector_baseIfSaIfEE13_M_deallocateEPfm;_ZNSt16allocator_traitsISaIfEE10deallocateERS0_Pfm;__GI___munmap;[unknown];[unknown];[unknown];[unknown];[unknown];[unknown];[unknown];[unknown];[unknown];[unknown] 1
ImageScaling;[unknown];_ZN2sf12RenderTarget4drawEPKNS_6VertexEmNS_13PrimitiveTypeERKNS_12RenderStatesE;[unknown];[unknown];[unknown];[unknown];[unknown];[unknown];[unknown];[unknown];[unknown];[unknown];[unknown];[unknown];[unknown] 1
ImageScaling;[unknown];_ZN2sf4priv10GlxContextD0Ev;[unknown];_ZN2sf4priv10GlxContext13createContextEPS1_jRKNS_15ContextSettingsE;glXCreateContext;[unknown];[unknown];[unknown];[unknown];[unknown];[unknown];[unknown];memset;[unknown];[unknown];[unknown];[unknown];[unknown] 1
ImageScaling;[unknown];__GI___ioctl;[unknown];[unknown];[unknown];[unknown];[unknown];[unknown] 1
ImageScaling;[unknown];__GI___ioctl;[unknown];[unknown];[unknown];[unknown];[unknown];[unknown];[unknown];[unknown];[unknown];[unknown];[unknown] 1
ImageScaling;[unknown];__GI___ioctl;[unknown];[unknown];[unknown];[unknown];[unknown];[unknown];[unknown];[unknown];[unknown];[unknown];[unknown];[unknown] 1
ImageScaling;[unknown];__GI___libc_recvmsg;[unknown];[unknown];[unknown];[unknown];[unknown];[unknown] 1
ImageScaling;[unknown];__GI___libc_recvmsg;[unknown];[unknown];[unknown];[unknown];[unknown];[unknown];[unknown];[unknown];[unknown];[unknown];[unknown] 1
ImageScaling;[unknown];__poll_nocancel;[unknown];[unknown];[unknown];[unknown];[unknown];[unknown];[unknown];[unknown];[unknown];[unknown];[unknown];[unknown];[unknown];[unknown];[unknown];[unknown] 4
ImageScaling;[unknown];pthread_mutex_lock 1
ImageScaling;_ZN2sf4priv10GlxContext13createContextEPS1_jRKNS_15ContextSettingsE;glXCreateContext;[unknown];[unknown];[unknown];[unknown];[unknown];[unknown];[unknown];pthread_mutex_lock 1
ImageScaling;_ZN2sf4priv10GlxContext16selectBestVisualEP9_XDisplayjRKNS_15ContextSettingsE;glXGetConfig;[unknown];[unknown];[unknown];[unknown] 1
ImageScaling;_ZN2sf4priv10GlxContext16selectBestVisualEP9_XDisplayjRKNS_15ContextSettingsE;glXGetConfig;[unknown];[unknown];[unknown];[unknown];[unknown];[unknown];[unknown];[unknown] 1
ImageScaling;_ZN2sf4priv12JoystickImpl11isConnectedEj 1
ImageScaling;_ZN2sf4priv9GlContext6createERKNS_15ContextSettingsEPKNS0_10WindowImplEj;[unknown];[unknown];[unknown];[unknown];[unknown];[unknown];[unknown];[unknown];[unknown];[unknown];[unknown] 4
ImageScaling;__libc_start_main;_ZN2sf6Window7displayEv;[unknown];[unknown];drm_intel_bo_reference 1
ImageScaling;__libc_start_main;main;[unknown];[unknown];[unknown];[unknown];[unknown];[unknown];[unknown];[unknown];[unknown];[unknown];[unknown];[unknown];[unknown];[unknown];[unknown];[unknown];[unknown];[unknown] 1
ImageScaling;__libc_start_main;main;_ZN4xbrz5scaleEmPKjPjiiNS_11ColorFormatERKNS_9ScalerCfgEii;_ZN12_GLOBAL__N_110scaleImageINS_8Scaler6xINS_17ColorGradientARGBEEENS_17ColorDistanceARGBEEEvPKjPjiiRKN4xbrz9ScalerCfgEii;_ZN12_GLOBAL__N_19fillBlockEPjiji;_ZN12_GLOBAL__N_19fillBlockEPjijii;_ZN12_GLOBAL__N_111byteAdvanceEPji 1
ImageScaling;__libc_start_main;main;_ZN4xbrz5scaleEmPKjPjiiNS_11ColorFormatERKNS_9ScalerCfgEii;_ZN12_GLOBAL__N_110scaleImageINS_8Scaler6xINS_17ColorGradientARGBEEENS_17ColorDistanceARGBEEEvPKjPjiiRKN4xbrz9ScalerCfgEii;_ZZN12_GLOBAL__N_117preProcessCornersINS_17ColorDistanceARGBEEENS_11BlendResultERKNS_10Kernel_4x4ERKN4xbrz9ScalerCfgEENKUljjE_clEjj;_ZN12_GLOBAL__N_117ColorDistanceARGB4distEjjd;_ZN12_GLOBAL__N_115DistYCbCrBuffer4distEjj;_ZN12_GLOBAL__N_115DistYCbCrBufferC1Ev 92
ImageScaling;__libc_start_main;main;_ZN4xbrz5scaleEmPKjPjiiNS_11ColorFormatERKNS_9ScalerCfgEii;_ZN12_GLOBAL__N_110scaleImageINS_8Scaler6xINS_17ColorGradientARGBEEENS_17ColorDistanceARGBEEEvPKjPjiiRKN4xbrz9ScalerCfgEii;_ZZN12_GLOBAL__N_117preProcessCornersINS_17ColorDistanceARGBEEENS_11BlendResultERKNS_10Kernel_4x4ERKN4xbrz9ScalerCfgEENKUljjE_clEjj;_ZN12_GLOBAL__N_117ColorDistanceARGB4distEjjd;_ZN12_GLOBAL__N_115DistYCbCrBuffer4distEjj;_ZN12_GLOBAL__N_115DistYCbCrBufferC1Ev;[unknown];[unknown];[unknown];[unknown];[unknown];[unknown];[unknown];[unknown];[unknown];[unknown];[unknown] 1
ImageScaling;__libc_start_main;main;_ZN4xbrz5scaleEmPKjPjiiNS_11ColorFormatERKNS_9ScalerCfgEii;_ZN12_GLOBAL__N_110scaleImageINS_8Scaler6xINS_17ColorGradientARGBEEENS_17ColorDistanceARGBEEEvPKjPjiiRKN4xbrz9ScalerCfgEii;_ZZN12_GLOBAL__N_117preProcessCornersINS_17ColorDistanceARGBEEENS_11BlendResultERKNS_10Kernel_4x4ERKN4xbrz9ScalerCfgEENKUljjE_clEjj;_ZN12_GLOBAL__N_117ColorDistanceARGB4distEjjd;_ZN12_GLOBAL__N_115DistYCbCrBuffer4distEjj;_ZN12_GLOBAL__N_115DistYCbCrBufferC1Ev;_ZN12_GLOBAL__N_16squareIdEET_S1_ 27
ImageScaling;__libc_start_main;main;_ZN4xbrz5scaleEmPKjPjiiNS_11ColorFormatERKNS_9ScalerCfgEii;_ZN12_GLOBAL__N_110scaleImageINS_8Scaler6xINS_17ColorGradientARGBEEENS_17ColorDistanceARGBEEEvPKjPjiiRKN4xbrz9ScalerCfgEii;_ZZN12_GLOBAL__N_117preProcessCornersINS_17ColorDistanceARGBEEENS_11BlendResultERKNS_10Kernel_4x4ERKN4xbrz9ScalerCfgEENKUljjE_clEjj;_ZN12_GLOBAL__N_117ColorDistanceARGB4distEjjd;_ZN12_GLOBAL__N_115DistYCbCrBuffer4distEjj;_ZN12_GLOBAL__N_115DistYCbCrBufferC1Ev;_ZN12_GLOBAL__N_17getByteILj0EEEhj 3
ImageScaling;__libc_start_main;main;_ZN4xbrz5scaleEmPKjPjiiNS_11ColorFormatERKNS_9ScalerCfgEii;_ZN12_GLOBAL__N_110scaleImageINS_8Scaler6xINS_17ColorGradientARGBEEENS_17ColorDistanceARGBEEEvPKjPjiiRKN4xbrz9ScalerCfgEii;_ZZN12_GLOBAL__N_117preProcessCornersINS_17ColorDistanceARGBEEENS_11BlendResultERKNS_10Kernel_4x4ERKN4xbrz9ScalerCfgEENKUljjE_clEjj;_ZN12_GLOBAL__N_117ColorDistanceARGB4distEjjd;_ZN12_GLOBAL__N_115DistYCbCrBuffer4distEjj;_ZN12_GLOBAL__N_115DistYCbCrBufferC1Ev;_ZN12_GLOBAL__N_17getByteILj1EEEhj 2
ImageScaling;__libc_start_main;main;_ZN4xbrz5scaleEmPKjPjiiNS_11ColorFormatERKNS_9ScalerCfgEii;_ZN12_GLOBAL__N_110scaleImageINS_8Scaler6xINS_17ColorGradientARGBEEENS_17ColorDistanceARGBEEEvPKjPjiiRKN4xbrz9ScalerCfgEii;_ZZN12_GLOBAL__N_117preProcessCornersINS_17ColorDistanceARGBEEENS_11BlendResultERKNS_10Kernel_4x4ERKN4xbrz9ScalerCfgEENKUljjE_clEjj;_ZN12_GLOBAL__N_117ColorDistanceARGB4distEjjd;_ZN12_GLOBAL__N_115DistYCbCrBuffer4distEjj;_ZN12_GLOBAL__N_115DistYCbCrBufferC1Ev;_ZN12_GLOBAL__N_17getByteILj2EEEhj 2
ImageScaling;__libc_start_main;main;_ZN4xbrz5scaleEmPKjPjiiNS_11ColorFormatERKNS_9ScalerCfgEii;_ZN12_GLOBAL__N_110scaleImageINS_8Scaler6xINS_17ColorGradientARGBEEENS_17ColorDistanceARGBEEEvPKjPjiiRKN4xbrz9ScalerCfgEii;_ZZN12_GLOBAL__N_117preProcessCornersINS_17ColorDistanceARGBEEENS_11BlendResultERKNS_10Kernel_4x4ERKN4xbrz9ScalerCfgEENKUljjE_clEjj;_ZN12_GLOBAL__N_117ColorDistanceARGB4distEjjd;_ZN12_GLOBAL__N_115DistYCbCrBuffer4distEjj;_ZN12_GLOBAL__N_115DistYCbCrBufferC1Ev;_ZNSt6vectorIfSaIfEEC1EmRKS0_;_ZNSt6vectorIfSaIfEE21_M_default_initializeEm;_ZSt27__uninitialized_default_n_aIPfmfET_S1_T0_RSaIT1_E;_ZSt25__uninitialized_default_nIPfmET_S1_T0_;_ZNSt27__uninitialized_default_n_1ILb1EE18__uninit_default_nIPfmEET_S3_T0_;_ZSt6fill_nIPfmfET_S1_T0_RKT1_;_ZSt10__fill_n_aIPfmfEN9__gnu_cxx11__enable_ifIXsrSt11__is_scalarIT1_E7__valueET_E6__typeES6_T0_RKS4_ 5
ImageScaling;__libc_start_main;main;_ZN4xbrz5scaleEmPKjPjiiNS_11ColorFormatERKNS_9ScalerCfgEii;_ZN12_GLOBAL__N_110scaleImageINS_8Scaler6xINS_17ColorGradientARGBEEENS_17ColorDistanceARGBEEEvPKjPjiiRKN4xbrz9ScalerCfgEii;_ZZN12_GLOBAL__N_117preProcessCornersINS_17ColorDistanceARGBEEENS_11BlendResultERKNS_10Kernel_4x4ERKN4xbrz9ScalerCfgEENKUljjE_clEjj;_ZN12_GLOBAL__N_117ColorDistanceARGB4distEjjd;_ZN12_GLOBAL__N_115DistYCbCrBuffer4distEjj;_ZN12_GLOBAL__N_115DistYCbCrBufferC1Ev;_ZNSt6vectorIfSaIfEEC1EmRKS0_;_ZNSt6vectorIfSaIfEE21_M_default_initializeEm;_ZSt27__uninitialized_default_n_aIPfmfET_S1_T0_RSaIT1_E;_ZSt25__uninitialized_default_nIPfmET_S1_T0_;_ZNSt27__uninitialized_default_n_1ILb1EE18__uninit_default_nIPfmEET_S3_T0_;_ZSt6fill_nIPfmfET_S1_T0_RKT1_;_ZSt10__fill_n_aIPfmfEN9__gnu_cxx11__enable_ifIXsrSt11__is_scalarIT1_E7__valueET_E6__typeES6_T0_RKS4_;[unknown] 1
ImageScaling;__libc_start_main;main;_ZN4xbrz5scaleEmPKjPjiiNS_11ColorFormatERKNS_9ScalerCfgEii;_ZN12_GLOBAL__N_110scaleImageINS_8Scaler6xINS_17ColorGradientARGBEEENS_17ColorDistanceARGBEEEvPKjPjiiRKN4xbrz9ScalerCfgEii;_ZZN12_GLOBAL__N_117preProcessCornersINS_17ColorDistanceARGBEEENS_11BlendResultERKNS_10Kernel_4x4ERKN4xbrz9ScalerCfgEENKUljjE_clEjj;_ZN12_GLOBAL__N_117ColorDistanceARGB4distEjjd;_ZN12_GLOBAL__N_115DistYCbCrBuffer4distEjj;_ZN12_GLOBAL__N_115DistYCbCrBufferC1Ev;_ZNSt6vectorIfSaIfEEC1EmRKS0_;_ZNSt6vectorIfSaIfEE21_M_default_initializeEm;_ZSt27__uninitialized_default_n_aIPfmfET_S1_T0_RSaIT1_E;_ZSt25__uninitialized_default_nIPfmET_S1_T0_;_ZNSt27__uninitialized_default_n_1ILb1EE18__uninit_default_nIPfmEET_S3_T0_;_ZSt6fill_nIPfmfET_S1_T0_RKT1_;_ZSt10__fill_n_aIPfmfEN9__gnu_cxx11__enable_ifIXsrSt11__is_scalarIT1_E7__valueET_E6__typeES6_T0_RKS4_;[unknown];[unknown];[unknown];[unknown];[unknown] 1
ImageScaling;__libc_start_main;main;_ZN4xbrz5scaleEmPKjPjiiNS_11ColorFormatERKNS_9ScalerCfgEii;_ZN12_GLOBAL__N_110scaleImageINS_8Scaler6xINS_17ColorGradientARGBEEENS_17ColorDistanceARGBEEEvPKjPjiiRKN4xbrz9ScalerCfgEii;_ZZN12_GLOBAL__N_117preProcessCornersINS_17ColorDistanceARGBEEENS_11BlendResultERKNS_10Kernel_4x4ERKN4xbrz9ScalerCfgEENKUljjE_clEjj;_ZN12_GLOBAL__N_117ColorDistanceARGB4distEjjd;_ZN12_GLOBAL__N_115DistYCbCrBuffer4distEjj;_ZN12_GLOBAL__N_115DistYCbCrBufferC1Ev;_ZNSt6vectorIfSaIfEEC1EmRKS0_;_ZNSt6vectorIfSaIfEE21_M_default_initializeEm;_ZSt27__uninitialized_default_n_aIPfmfET_S1_T0_RSaIT1_E;_ZSt25__uninitialized_default_nIPfmET_S1_T0_;_ZNSt27__uninitialized_default_n_1ILb1EE18__uninit_default_nIPfmEET_S3_T0_;_ZSt6fill_nIPfmfET_S1_T0_RKT1_;_ZSt10__fill_n_aIPfmfEN9__gnu_cxx11__enable_ifIXsrSt11__is_scalarIT1_E7__valueET_E6__typeES6_T0_RKS4_;[unknown];[unknown];[unknown];[unknown];[unknown];[unknown];[unknown] 2
ImageScaling;__libc_start_main;main;_ZN4xbrz5scaleEmPKjPjiiNS_11ColorFormatERKNS_9ScalerCfgEii;_ZN12_GLOBAL__N_110scaleImageINS_8Scaler6xINS_17ColorGradientARGBEEENS_17ColorDistanceARGBEEEvPKjPjiiRKN4xbrz9ScalerCfgEii;_ZZN12_GLOBAL__N_117preProcessCornersINS_17ColorDistanceARGBEEENS_11BlendResultERKNS_10Kernel_4x4ERKN4xbrz9ScalerCfgEENKUljjE_clEjj;_ZN12_GLOBAL__N_117ColorDistanceARGB4distEjjd;_ZN12_GLOBAL__N_115DistYCbCrBuffer4distEjj;_ZN12_GLOBAL__N_115DistYCbCrBufferC1Ev;_ZNSt6vectorIfSaIfEEixEm 4
ImageScaling;__libc_start_main;main;_ZN4xbrz5scaleEmPKjPjiiNS_11ColorFormatERKNS_9ScalerCfgEii;_ZN12_GLOBAL__N_110scaleImageINS_8Scaler6xINS_17ColorGradientARGBEEENS_17ColorDistanceARGBEEEvPKjPjiiRKN4xbrz9ScalerCfgEii;_ZZN12_GLOBAL__N_117preProcessCornersINS_17ColorDistanceARGBEEENS_11BlendResultERKNS_10Kernel_4x4ERKN4xbrz9ScalerCfgEENKUljjE_clEjj;_ZN12_GLOBAL__N_117ColorDistanceARGB4distEjjd;_ZN12_GLOBAL__N_115DistYCbCrBuffer4distEjj;_ZN12_GLOBAL__N_16squareIdEET_S1_ 9
ImageScaling;__libc_start_main;main;_ZN4xbrz5scaleEmPKjPjiiNS_11ColorFormatERKNS_9ScalerCfgEii;_ZN12_GLOBAL__N_110scaleImageINS_8Scaler6xINS_17ColorGradientARGBEEENS_17ColorDistanceARGBEEEvPKjPjiiRKN4xbrz9ScalerCfgEii;_ZZN12_GLOBAL__N_117preProcessCornersINS_17ColorDistanceARGBEEENS_11BlendResultERKNS_10Kernel_4x4ERKN4xbrz9ScalerCfgEENKUljjE_clEjj;_ZN12_GLOBAL__N_117ColorDistanceARGB4distEjjd;_ZN12_GLOBAL__N_115DistYCbCrBuffer4distEjj;_ZN12_GLOBAL__N_17getByteILj2EEEhj 1
ImageScaling;__libc_start_main;main;_ZN4xbrz5scaleEmPKjPjiiNS_11ColorFormatERKNS_9ScalerCfgEii;_ZN12_GLOBAL__N_110scaleImageINS_8Scaler6xINS_17ColorGradientARGBEEENS_17ColorDistanceARGBEEEvPKjPjiiRKN4xbrz9ScalerCfgEii;_ZZN12_GLOBAL__N_117preProcessCornersINS_17ColorDistanceARGBEEENS_11BlendResultERKNS_10Kernel_4x4ERKN4xbrz9ScalerCfgEENKUljjE_clEjj;_ZN12_GLOBAL__N_117ColorDistanceARGB4distEjjd;_ZN12_GLOBAL__N_115DistYCbCrBuffer4distEjj;_ZNSt6vectorIfSaIfEEixEm 3
ImageScaling;__libc_start_main;main;_ZN4xbrz5scaleEmPKjPjiiNS_11ColorFormatERKNS_9ScalerCfgEii;_ZN12_GLOBAL__N_110scaleImageINS_8Scaler6xINS_17ColorGradientARGBEEENS_17ColorDistanceARGBEEEvPKjPjiiRKN4xbrz9ScalerCfgEii;_ZZN12_GLOBAL__N_117preProcessCornersINS_17ColorDistanceARGBEEENS_11BlendResultERKNS_10Kernel_4x4ERKN4xbrz9ScalerCfgEENKUljjE_clEjj;_ZN12_GLOBAL__N_117ColorDistanceARGB4distEjjd;_ZN12_GLOBAL__N_115DistYCbCrBuffer4distEjj;__sqrt 34
ImageScaling;__libc_start_main;main;_ZN4xbrz5scaleEmPKjPjiiNS_11ColorFormatERKNS_9ScalerCfgEii;_ZN12_GLOBAL__N_110scaleImageINS_8Scaler6xINS_17ColorGradientARGBEEENS_17ColorDistanceARGBEEEvPKjPjiiRKN4xbrz9ScalerCfgEii;_ZZN12_GLOBAL__N_117preProcessCornersINS_17ColorDistanceARGBEEENS_11BlendResultERKNS_10Kernel_4x4ERKN4xbrz9ScalerCfgEENKUljjE_clEjj;_ZN12_GLOBAL__N_117ColorDistanceARGB4distEjjd;_ZN12_GLOBAL__N_115DistYCbCrBuffer4distEjj;sqrt@plt 1
ImageScaling;__libc_start_main;main;_ZN5ImGui4SFML4InitERN2sf12RenderWindowE;_ZN5ImGui4SFML4InitERN2sf6WindowERNS1_12RenderTargetE;_ZN2sf7Texture6createEjj;[unknown];[unknown];[unknown];[unknown];[unknown];[unknown];[unknown];[unknown];[unknown];[unknown];[unknown];__strcmp_sse2_unaligned 1
ImageScaling;__libc_start_main;main;_ZN5ImGui4SFML6UpdateEN2sf4TimeE;_ZN5ImGui8NewFrameEv;_ZN5ImGui5BeginEPKcPbi;_ZN5ImGui14ButtonBehaviorERK6ImRectjPbS3_i 1
ImageScaling;__libc_start_main;main;_ZN5ImGui4SFML6UpdateEN2sf4TimeE;_ZN5ImGui8NewFrameEv;_ZN5ImGui5BeginEPKcPbi;_ZN5ImGui5BeginEPKcPbRK6ImVec2fi;_ZN10ImDrawList13AddRectFilledERK6ImVec2S2_jfi;_ZN10ImDrawList8PathFillEj;_ZN10ImDrawList19AddConvexPolyFilledEPK6ImVec2ijb 1
ImageScaling;__libc_start_main;main;_ZN5ImGui6RenderEv;_ZN12_GLOBAL__N_115RenderDrawListsEP10ImDrawData;[unknown] 2
ImageScaling;__libc_start_main;main;_ZN5ImGui6RenderEv;_ZN12_GLOBAL__N_115RenderDrawListsEP10ImDrawData;[unknown];[unknown];[unknown] 2
ImageScaling;__libc_start_main;main;_ZN5ImGui6RenderEv;_ZN12_GLOBAL__N_115RenderDrawListsEP10ImDrawData;[unknown];[unknown];[unknown];[unknown] 2
ImageScaling;__libc_start_main;main;_ZN5ImGui6RenderEv;_ZN12_GLOBAL__N_115RenderDrawListsEP10ImDrawData;[unknown];[unknown];[unknown];[unknown];[unknown];[unknown];[unknown];[unknown];[unknown];[unknown];[unknown] 1
ImageScaling;__libc_start_main;main;_ZN5ImGui6RenderEv;_ZN12_GLOBAL__N_115RenderDrawListsEP10ImDrawData;[unknown];pthread_mutex_unlock 1
ImageScaling;__libc_start_main;main;_ZN5ImGui6RenderEv;_ZN2sf12RenderTarget11popGLStatesEv;[unknown];[unknown];[unknown] 1
ImageScaling;__libc_start_main;main;_ZN5ImGui6RenderEv;_ZN2sf12RenderTarget11popGLStatesEv;[unknown];[unknown];[unknown];pthread_mutex_lock 1
ImageScaling;__libc_start_main;main;_ZN5ImGui6RenderEv;_ZN2sf12RenderTarget11popGLStatesEv;[unknown];[unknown];[unknown];pthread_mutex_lock@plt 1
ImageScaling;__libc_start_main;main;_ZN5ImGui6RenderEv;_ZN2sf12RenderTarget12pushGLStatesEv;[unknown];[unknown];[unknown] 1
ImageScaling;__libc_start_main;main;_ZN5ImGui6RenderEv;_ZN2sf12RenderTarget12pushGLStatesEv;__memcpy_sse2_unaligned 3
ImageScaling;__libc_start_main;main;_ZN5ImGui6RenderEv;_ZN2sf12RenderTarget12pushGLStatesEv;memset 4
ImageScaling;__libc_start_main;main;_ZN5ImGui6RenderEv;_ZN5ImGui8EndFrameEv;_ZN5ImGui3EndEv;_ZN5ImGui11PopClipRectEv;_ZN10ImDrawList11PopClipRectEv 1
ImageScaling;__libc_writev;[unknown];[unknown];[unknown];[unknown];[unknown];[unknown];[unknown];[unknown];[unknown];[unknown];[unknown] 4
ImageScaling;_int_malloc 1
ImageScaling;_int_malloc;[unknown];[unknown];[unknown];[unknown] 1
ImageScaling;free@plt 1
ImageScaling;malloc_consolidate 1
ImageScaling;memset;[unknown];[unknown];[unknown];[unknown];[unknown];[unknown];[unknown];[unknown];[unknown];[unknown];[unknown] 4
